; Function Attrs: mustprogress nounwind uwtable
define internal fastcc void @_ZN6hermes6ESTree24RecursiveVisitorDispatchINS_3sem12_GLOBAL__N_127BlockScopingTransformationsELb0EE13visitChildrenERS4_PNS0_18TypeAnnotationNodeE(ptr noundef nonnull align 8 dereferenceable(72) %v, ptr noundef captures(none) %node) unnamed_addr #0 align 2 {
entry:
  %_typeAnnotation = getelementptr inbounds nuw i8, ptr %node, i64 48
  %0 = load ptr, ptr %_typeAnnotation, align 8
  %call = tail call fastcc { ptr, i8 } @_ZN6hermes6ESTree24RecursiveVisitorDispatchINS_3sem12_GLOBAL__N_127BlockScopingTransformationsELb0EE5visitERS4_PNS0_4NodeES8_(ptr noundef nonnull align 8 dereferenceable(72) %v, ptr noundef %0)
  %1 = extractvalue { ptr, i8 } %call, 0
  %2 = extractvalue { ptr, i8 } %call, 1
  br label %for.body.i.i.i

for.body.i.i.i:                                   ; preds = %for.inc.i.i.i, %entry
  %__i.06.i.i.i = phi i64 [ 0, %entry ], [ %inc.i.i.i, %for.inc.i.i.i ]
  %__n.05.i.i.i = phi i64 [ 3, %entry ], [ %__n.1.i.i.i, %for.inc.i.i.i ]
  %arrayidx.i.i.i = getelementptr inbounds nuw [3 x i8], ptr @__const._ZSt24__find_uniq_type_in_packIN6hermes6ESTree8RemovedTEJNS1_11UnmodifiedTES2_PNS1_4NodeEEEmv.__found, i64 0, i64 %__i.06.i.i.i
  %3 = load i8, ptr %arrayidx.i.i.i, align 1
  %tobool.i.i.i = trunc i8 %3 to i1
  br i1 %tobool.i.i.i, label %if.then.i.i.i, label %for.inc.i.i.i

if.then.i.i.i:                                    ; preds = %for.body.i.i.i
  %cmp1.i.i.i = icmp samesign ult i64 %__n.05.i.i.i, 3
  br i1 %cmp1.i.i.i, label %_ZSt17holds_alternativeIN6hermes6ESTree8RemovedTEJNS1_11UnmodifiedTES2_PNS1_4NodeEEEbRKSt7variantIJDpT0_EE.exit.i, label %for.inc.i.i.i

for.inc.i.i.i:                                    ; preds = %if.then.i.i.i, %for.body.i.i.i
  %__n.1.i.i.i = phi i64 [ %__n.05.i.i.i, %for.body.i.i.i ], [ %__i.06.i.i.i, %if.then.i.i.i ]
  %inc.i.i.i = add nuw nsw i64 %__i.06.i.i.i, 1
  %exitcond.not.i.i.i = icmp eq i64 %inc.i.i.i, 3
  br i1 %exitcond.not.i.i.i, label %_ZSt17holds_alternativeIN6hermes6ESTree8RemovedTEJNS1_11UnmodifiedTES2_PNS1_4NodeEEEbRKSt7variantIJDpT0_EE.exit.i, label %for.body.i.i.i, !llvm.loop !13

_ZSt17holds_alternativeIN6hermes6ESTree8RemovedTEJNS1_11UnmodifiedTES2_PNS1_4NodeEEEbRKSt7variantIJDpT0_EE.exit.i: ; preds = %for.inc.i.i.i, %if.then.i.i.i
  %retval.0.i.i.i = phi i64 [ 3, %if.then.i.i.i ], [ %__n.1.i.i.i, %for.inc.i.i.i ]
  %conv.i.i.i = zext i8 %2 to i64
  %cmp.i.i = icmp eq i64 %retval.0.i.i.i, %conv.i.i.i
  br i1 %cmp.i.i, label %if.end5.sink.split.i, label %for.body.i.i3.i

for.body.i.i3.i:                                  ; preds = %_ZSt17holds_alternativeIN6hermes6ESTree8RemovedTEJNS1_11UnmodifiedTES2_PNS1_4NodeEEEbRKSt7variantIJDpT0_EE.exit.i, %for.inc.i.i8.i
  %__i.06.i.i4.i = phi i64 [ %inc.i.i10.i, %for.inc.i.i8.i ], [ 0, %_ZSt17holds_alternativeIN6hermes6ESTree8RemovedTEJNS1_11UnmodifiedTES2_PNS1_4NodeEEEbRKSt7variantIJDpT0_EE.exit.i ]
  %__n.05.i.i5.i = phi i64 [ %__n.1.i.i9.i, %for.inc.i.i8.i ], [ 3, %_ZSt17holds_alternativeIN6hermes6ESTree8RemovedTEJNS1_11UnmodifiedTES2_PNS1_4NodeEEEbRKSt7variantIJDpT0_EE.exit.i ]
  %arrayidx.i.i6.i = getelementptr inbounds nuw [3 x i8], ptr @__const._ZSt24__find_uniq_type_in_packIPN6hermes6ESTree4NodeEJNS1_11UnmodifiedTENS1_8RemovedTES3_EEmv.__found, i64 0, i64 %__i.06.i.i4.i
  %4 = load i8, ptr %arrayidx.i.i6.i, align 1
  %tobool.i.i7.i = trunc i8 %4 to i1
  br i1 %tobool.i.i7.i, label %if.then.i.i15.i, label %for.inc.i.i8.i

if.then.i.i15.i:                                  ; preds = %for.body.i.i3.i
  %cmp1.i.i16.i = icmp samesign ult i64 %__n.05.i.i5.i, 3
  br i1 %cmp1.i.i16.i, label %_ZSt17holds_alternativeIPN6hermes6ESTree4NodeEJNS1_11UnmodifiedTENS1_8RemovedTES3_EEbRKSt7variantIJDpT0_EE.exit.i, label %for.inc.i.i8.i

for.inc.i.i8.i:                                   ; preds = %if.then.i.i15.i, %for.body.i.i3.i
  %__n.1.i.i9.i = phi i64 [ %__n.05.i.i5.i, %for.body.i.i3.i ], [ %__i.06.i.i4.i, %if.then.i.i15.i ]
  %inc.i.i10.i = add nuw nsw i64 %__i.06.i.i4.i, 1
  %exitcond.not.i.i11.i = icmp eq i64 %inc.i.i10.i, 3
  br i1 %exitcond.not.i.i11.i, label %_ZSt17holds_alternativeIPN6hermes6ESTree4NodeEJNS1_11UnmodifiedTENS1_8RemovedTES3_EEbRKSt7variantIJDpT0_EE.exit.i, label %for.body.i.i3.i, !llvm.loop !14

_ZSt17holds_alternativeIPN6hermes6ESTree4NodeEJNS1_11UnmodifiedTENS1_8RemovedTES3_EEbRKSt7variantIJDpT0_EE.exit.i: ; preds = %for.inc.i.i8.i, %if.then.i.i15.i
  %retval.0.i.i12.i = phi i64 [ 3, %if.then.i.i15.i ], [ %__n.1.i.i9.i, %for.inc.i.i8.i ]
  %cmp.i14.i = icmp eq i64 %retval.0.i.i12.i, %conv.i.i.i
  br i1 %cmp.i14.i, label %if.then2.i, label %_ZN6hermes6ESTree24RecursiveVisitorDispatchINS_3sem12_GLOBAL__N_127BlockScopingTransformationsELb0EE9postVisitEPPNS0_4NodeESt7variantIJNS0_11UnmodifiedTENS0_8RemovedTES7_EE.exit

if.then2.i:                                       ; preds = %_ZSt17holds_alternativeIPN6hermes6ESTree4NodeEJNS1_11UnmodifiedTENS1_8RemovedTES3_EEbRKSt7variantIJDpT0_EE.exit.i
  %cmp.not.i.i.i = icmp eq i8 %2, 2
  br i1 %cmp.not.i.i.i, label %if.end5.sink.split.i, label %if.then.i.i17.i

if.then.i.i17.i:                                  ; preds = %if.then2.i
  tail call void @abort() #14
  unreachable

if.end5.sink.split.i:                             ; preds = %if.then2.i, %_ZSt17holds_alternativeIN6hermes6ESTree8RemovedTEJNS1_11UnmodifiedTES2_PNS1_4NodeEEEbRKSt7variantIJDpT0_EE.exit.i
  %vr.coerce0.sink.i = phi ptr [ null, %_ZSt17holds_alternativeIN6hermes6ESTree8RemovedTEJNS1_11UnmodifiedTES2_PNS1_4NodeEEEbRKSt7variantIJDpT0_EE.exit.i ], [ %1, %if.then2.i ]
  store ptr %vr.coerce0.sink.i, ptr %_typeAnnotation, align 8
  br label %_ZN6hermes6ESTree24RecursiveVisitorDispatchINS_3sem12_GLOBAL__N_127BlockScopingTransformationsELb0EE9postVisitEPPNS0_4NodeESt7variantIJNS0_11UnmodifiedTENS0_8RemovedTES7_EE.exit

_ZN6hermes6ESTree24RecursiveVisitorDispatchINS_3sem12_GLOBAL__N_127BlockScopingTransformationsELb0EE9postVisitEPPNS0_4NodeESt7variantIJNS0_11UnmodifiedTENS0_8RemovedTES7_EE.exit: ; preds = %_ZSt17holds_alternativeIPN6hermes6ESTree4NodeEJNS1_11UnmodifiedTENS1_8RemovedTES3_EEbRKSt7variantIJDpT0_EE.exit.i, %if.end5.sink.split.i
  ret void
}